; Function Attrs: mustprogress uwtable
define void @_ZN3nix19BorrowedCryptoValue5parseESt17basic_string_viewIcSt11char_traitsIcEE(ptr dead_on_unwind noalias nocapture writable writeonly sret(%"struct.nix::BorrowedCryptoValue") align 8 %0, i64 %1, ptr %2) local_unnamed_addr #2 align 2 personality ptr @__gxx_personality_v0 {
  %.not = icmp eq i64 %1, 0
  br i1 %.not, label %_ZNKSt17basic_string_viewIcSt11char_traitsIcEE4findEcm.exit.thread, label %_ZNSt11char_traitsIcE4findEPKcmRS1_.exit.i

_ZNSt11char_traitsIcE4findEPKcmRS1_.exit.i:       ; preds = %3
  %4 = tail call ptr @memchr(ptr noundef %2, i32 noundef 58, i64 noundef %1) #20
  %.not.i = icmp eq ptr %4, null
  br i1 %.not.i, label %_ZNKSt17basic_string_viewIcSt11char_traitsIcEE4findEcm.exit.thread, label %_ZNKSt17basic_string_viewIcSt11char_traitsIcEE4findEcm.exit

_ZNKSt17basic_string_viewIcSt11char_traitsIcEE4findEcm.exit: ; preds = %_ZNSt11char_traitsIcE4findEPKcmRS1_.exit.i
  %5 = ptrtoint ptr %4 to i64
  %6 = ptrtoint ptr %2 to i64
  %7 = sub i64 %5, %6
  %8 = add i64 %7, 1
  %or.cond = icmp ult i64 %8, 2
  br i1 %or.cond, label %_ZNKSt17basic_string_viewIcSt11char_traitsIcEE4findEcm.exit.thread, label %11

_ZNKSt17basic_string_viewIcSt11char_traitsIcEE4findEcm.exit.thread: ; preds = %3, %_ZNSt11char_traitsIcE4findEPKcmRS1_.exit.i, %_ZNKSt17basic_string_viewIcSt11char_traitsIcEE4findEcm.exit
  store i64 0, ptr %0, align 8
  %9 = getelementptr inbounds i8, ptr %0, i64 8
  store ptr @.str, ptr %9, align 8
  %10 = getelementptr inbounds i8, ptr %0, i64 16
  store i64 0, ptr %10, align 8
  br label %18

11:                                               ; preds = %_ZNKSt17basic_string_viewIcSt11char_traitsIcEE4findEcm.exit
  %.sroa.speculated.i = tail call i64 @llvm.umin.i64(i64 %1, i64 %7)
  store i64 %.sroa.speculated.i, ptr %0, align 8
  %12 = getelementptr inbounds i8, ptr %0, i64 8
  store ptr %2, ptr %12, align 8
  %13 = icmp ugt i64 %8, %1
  br i1 %13, label %14, label %_ZNKSt17basic_string_viewIcSt11char_traitsIcEE6substrEmm.exit

14:                                               ; preds = %11
  tail call void (ptr, ...) @_ZSt24__throw_out_of_range_fmtPKcz(ptr noundef nonnull @.str.10, ptr noundef nonnull @.str.9, i64 noundef %8, i64 noundef %1) #21
  unreachable

_ZNKSt17basic_string_viewIcSt11char_traitsIcEE6substrEmm.exit: ; preds = %11
  %15 = getelementptr inbounds i8, ptr %0, i64 16
  %16 = sub i64 %1, %8
  %17 = getelementptr inbounds i8, ptr %2, i64 %8
  store i64 %16, ptr %15, align 8
  br label %18

18:                                               ; preds = %_ZNKSt17basic_string_viewIcSt11char_traitsIcEE6substrEmm.exit, %_ZNKSt17basic_string_viewIcSt11char_traitsIcEE4findEcm.exit.thread
  %.sink = phi ptr [ %17, %_ZNKSt17basic_string_viewIcSt11char_traitsIcEE6substrEmm.exit ], [ @.str, %_ZNKSt17basic_string_viewIcSt11char_traitsIcEE4findEcm.exit.thread ]
  %19 = getelementptr inbounds i8, ptr %0, i64 24
  store ptr %.sink, ptr %19, align 8
  ret void
}